target datalayout = "e-m:e-p270:32:32-p271:32:32-p272:64:64-i64:64-i128:128-f80:128-n8:16:32:64-S128"
target triple = "x86_64-pc-linux-gnu"

%struct.IDAMemRec = type { ptr, double, ptr, ptr, i32, double, double, ptr, i32, i32, ptr, ptr, i32, i32, i32, ptr, ptr, i32, i32, double, double, ptr, i32, i32, i32, i32, ptr, ptr, i32, ptr, ptr, ptr, i32, double, i32, i32, double, ptr, ptr, ptr, i32, ptr, ptr, i32, i32, i32, double, ptr, ptr, ptr, [6 x ptr], [6 x double], [6 x double], [6 x double], [6 x double], [6 x double], ptr, ptr, ptr, ptr, ptr, ptr, ptr, ptr, ptr, ptr, ptr, ptr, ptr, ptr, ptr, ptr, ptr, [6 x ptr], ptr, ptr, ptr, ptr, [6 x ptr], ptr, ptr, ptr, ptr, ptr, ptr, ptr, ptr, ptr, ptr, ptr, ptr, ptr, ptr, ptr, ptr, [6 x ptr], ptr, ptr, ptr, ptr, ptr, double, ptr, ptr, i32, i32, i32, i32, i32, i32, i32, i32, double, double, double, i32, double, i32, i32, i32, i32, i32, double, double, double, double, double, double, double, double, double, double, double, double, double, double, double, double, double, i32, i32, i32, i32, i64, double, double, double, double, double, double, double, double, double, i64, i64, i64, i64, i64, i64, i64, i64, i64, i64, i64, i64, i64, i64, i64, i64, i64, i64, i64, i64, i64, i64, i64, i64, i64, i64, double, i32, i32, i32, i32, i32, i32, i32, i32, i32, i32, i32, i32, i32, ptr, i32, ptr, i32, ptr, i32, ptr, ptr, ptr, ptr, ptr, ptr, i32, i32, ptr, ptr, ptr, ptr, ptr, ptr, ptr, double, i32, i32, ptr, i32, ptr, ptr, double, double, double, ptr, ptr, ptr, double, double, i32, i32, i64, ptr, i32, ptr, [5 x double], ptr, ptr, i32, ptr, i32 }

; Function Attrs: nounwind uwtable
define internal void @IDAQuadFreeVectors(ptr noundef %0) #0 {
  %2 = alloca ptr, align 8
  %3 = alloca i32, align 4
  store ptr %0, ptr %2, align 8, !tbaa !8
  call void @llvm.lifetime.start.p0(i64 4, ptr %3) #10
  %4 = load ptr, ptr %2, align 8, !tbaa !8
  %5 = getelementptr inbounds nuw %struct.IDAMemRec, ptr %4, i32 0, i32 74
  %6 = load ptr, ptr %5, align 8, !tbaa !196
  call void @N_VDestroy(ptr noundef %6)
  %7 = load ptr, ptr %2, align 8, !tbaa !8
  %8 = getelementptr inbounds nuw %struct.IDAMemRec, ptr %7, i32 0, i32 74
  store ptr null, ptr %8, align 8, !tbaa !196
  %9 = load ptr, ptr %2, align 8, !tbaa !8
  %10 = getelementptr inbounds nuw %struct.IDAMemRec, ptr %9, i32 0, i32 75
  %11 = load ptr, ptr %10, align 8, !tbaa !197
  call void @N_VDestroy(ptr noundef %11)
  %12 = load ptr, ptr %2, align 8, !tbaa !8
  %13 = getelementptr inbounds nuw %struct.IDAMemRec, ptr %12, i32 0, i32 75
  store ptr null, ptr %13, align 8, !tbaa !197
  %14 = load ptr, ptr %2, align 8, !tbaa !8
  %15 = getelementptr inbounds nuw %struct.IDAMemRec, ptr %14, i32 0, i32 76
  %16 = load ptr, ptr %15, align 8, !tbaa !198
  call void @N_VDestroy(ptr noundef %16)
  %17 = load ptr, ptr %2, align 8, !tbaa !8
  %18 = getelementptr inbounds nuw %struct.IDAMemRec, ptr %17, i32 0, i32 76
  store ptr null, ptr %18, align 8, !tbaa !198
  %19 = load ptr, ptr %2, align 8, !tbaa !8
  %20 = getelementptr inbounds nuw %struct.IDAMemRec, ptr %19, i32 0, i32 77
  %21 = load ptr, ptr %20, align 8, !tbaa !199
  call void @N_VDestroy(ptr noundef %21)
  %22 = load ptr, ptr %2, align 8, !tbaa !8
  %23 = getelementptr inbounds nuw %struct.IDAMemRec, ptr %22, i32 0, i32 77
  store ptr null, ptr %23, align 8, !tbaa !199
  store i32 0, ptr %3, align 4, !tbaa !114
  br label %24

24:                                               ; preds = %42, %1
  %25 = load i32, ptr %3, align 4, !tbaa !114
  %26 = load ptr, ptr %2, align 8, !tbaa !8
  %27 = getelementptr inbounds nuw %struct.IDAMemRec, ptr %26, i32 0, i32 141
  %28 = load i32, ptr %27, align 8, !tbaa !29
  %29 = icmp sle i32 %25, %28
  br i1 %29, label %30, label %45

30:                                               ; preds = %24
  %31 = load ptr, ptr %2, align 8, !tbaa !8
  %32 = getelementptr inbounds nuw %struct.IDAMemRec, ptr %31, i32 0, i32 73
  %33 = load i32, ptr %3, align 4, !tbaa !114
  %34 = sext i32 %33 to i64
  %35 = getelementptr inbounds [6 x ptr], ptr %32, i64 0, i64 %34
  %36 = load ptr, ptr %35, align 8, !tbaa !124
  call void @N_VDestroy(ptr noundef %36)
  %37 = load ptr, ptr %2, align 8, !tbaa !8
  %38 = getelementptr inbounds nuw %struct.IDAMemRec, ptr %37, i32 0, i32 73
  %39 = load i32, ptr %3, align 4, !tbaa !114
  %40 = sext i32 %39 to i64
  %41 = getelementptr inbounds [6 x ptr], ptr %38, i64 0, i64 %40
  store ptr null, ptr %41, align 8, !tbaa !124
  br label %42

42:                                               ; preds = %30
  %43 = load i32, ptr %3, align 4, !tbaa !114
  %44 = add nsw i32 %43, 1
  store i32 %44, ptr %3, align 4, !tbaa !114
  br label %24

45:                                               ; preds = %24
  %46 = load ptr, ptr %2, align 8, !tbaa !8
  %47 = getelementptr inbounds nuw %struct.IDAMemRec, ptr %46, i32 0, i32 141
  %48 = load i32, ptr %47, align 8, !tbaa !29
  %49 = add nsw i32 %48, 5
  %50 = sext i32 %49 to i64
  %51 = load ptr, ptr %2, align 8, !tbaa !8
  %52 = getelementptr inbounds nuw %struct.IDAMemRec, ptr %51, i32 0, i32 175
  %53 = load i64, ptr %52, align 8, !tbaa !192
  %54 = mul nsw i64 %50, %53
  %55 = load ptr, ptr %2, align 8, !tbaa !8
  %56 = getelementptr inbounds nuw %struct.IDAMemRec, ptr %55, i32 0, i32 177
  %57 = load i64, ptr %56, align 8, !tbaa !85
  %58 = sub nsw i64 %57, %54
  store i64 %58, ptr %56, align 8, !tbaa !85
  %59 = load ptr, ptr %2, align 8, !tbaa !8
  %60 = getelementptr inbounds nuw %struct.IDAMemRec, ptr %59, i32 0, i32 141
  %61 = load i32, ptr %60, align 8, !tbaa !29
  %62 = add nsw i32 %61, 5
  %63 = sext i32 %62 to i64
  %64 = load ptr, ptr %2, align 8, !tbaa !8
  %65 = getelementptr inbounds nuw %struct.IDAMemRec, ptr %64, i32 0, i32 176
  %66 = load i64, ptr %65, align 8, !tbaa !193
  %67 = mul nsw i64 %63, %66
  %68 = load ptr, ptr %2, align 8, !tbaa !8
  %69 = getelementptr inbounds nuw %struct.IDAMemRec, ptr %68, i32 0, i32 178
  %70 = load i64, ptr %69, align 8, !tbaa !86
  %71 = sub nsw i64 %70, %67
  store i64 %71, ptr %69, align 8, !tbaa !86
  %72 = load ptr, ptr %2, align 8, !tbaa !8
  %73 = getelementptr inbounds nuw %struct.IDAMemRec, ptr %72, i32 0, i32 185
  %74 = load i32, ptr %73, align 4, !tbaa !91
  %75 = icmp ne i32 %74, 0
  br i1 %75, label %76, label %96

76:                                               ; preds = %45
  %77 = load ptr, ptr %2, align 8, !tbaa !8
  %78 = getelementptr inbounds nuw %struct.IDAMemRec, ptr %77, i32 0, i32 21
  %79 = load ptr, ptr %78, align 8, !tbaa !202
  call void @N_VDestroy(ptr noundef %79)
  %80 = load ptr, ptr %2, align 8, !tbaa !8
  %81 = getelementptr inbounds nuw %struct.IDAMemRec, ptr %80, i32 0, i32 21
  store ptr null, ptr %81, align 8, !tbaa !202
  %82 = load ptr, ptr %2, align 8, !tbaa !8
  %83 = getelementptr inbounds nuw %struct.IDAMemRec, ptr %82, i32 0, i32 175
  %84 = load i64, ptr %83, align 8, !tbaa !192
  %85 = load ptr, ptr %2, align 8, !tbaa !8
  %86 = getelementptr inbounds nuw %struct.IDAMemRec, ptr %85, i32 0, i32 177
  %87 = load i64, ptr %86, align 8, !tbaa !85
  %88 = sub nsw i64 %87, %84
  store i64 %88, ptr %86, align 8, !tbaa !85
  %89 = load ptr, ptr %2, align 8, !tbaa !8
  %90 = getelementptr inbounds nuw %struct.IDAMemRec, ptr %89, i32 0, i32 176
  %91 = load i64, ptr %90, align 8, !tbaa !193
  %92 = load ptr, ptr %2, align 8, !tbaa !8
  %93 = getelementptr inbounds nuw %struct.IDAMemRec, ptr %92, i32 0, i32 178
  %94 = load i64, ptr %93, align 8, !tbaa !86
  %95 = sub nsw i64 %94, %91
  store i64 %95, ptr %93, align 8, !tbaa !86
  br label %96

96:                                               ; preds = %76, %45
  %97 = load ptr, ptr %2, align 8, !tbaa !8
  %98 = getelementptr inbounds nuw %struct.IDAMemRec, ptr %97, i32 0, i32 185
  store i32 0, ptr %98, align 4, !tbaa !91
  call void @llvm.lifetime.end.p0(i64 4, ptr %3) #10
  ret void
}

; Function Attrs: nounwind uwtable
define void @IDAQuadFree(ptr noundef %0) #0 {
  %2 = alloca ptr, align 8
  %3 = alloca ptr, align 8
  %4 = alloca i32, align 4
  store ptr %0, ptr %2, align 8, !tbaa !126
  call void @llvm.lifetime.start.p0(i64 8, ptr %3) #10
  %5 = load ptr, ptr %2, align 8, !tbaa !126
  %6 = icmp eq ptr %5, null
  br i1 %6, label %7, label %8

7:                                                ; preds = %1
  store i32 1, ptr %4, align 4
  br label %21

8:                                                ; preds = %1
  %9 = load ptr, ptr %2, align 8, !tbaa !126
  store ptr %9, ptr %3, align 8, !tbaa !8
  %10 = load ptr, ptr %3, align 8, !tbaa !8
  %11 = getelementptr inbounds nuw %struct.IDAMemRec, ptr %10, i32 0, i32 186
  %12 = load i32, ptr %11, align 8, !tbaa !92
  %13 = icmp ne i32 %12, 0
  br i1 %13, label %14, label %20

14:                                               ; preds = %8
  %15 = load ptr, ptr %3, align 8, !tbaa !8
  call void @IDAQuadFreeVectors(ptr noundef %15)
  %16 = load ptr, ptr %3, align 8, !tbaa !8
  %17 = getelementptr inbounds nuw %struct.IDAMemRec, ptr %16, i32 0, i32 186
  store i32 0, ptr %17, align 8, !tbaa !92
  %18 = load ptr, ptr %3, align 8, !tbaa !8
  %19 = getelementptr inbounds nuw %struct.IDAMemRec, ptr %18, i32 0, i32 14
  store i32 0, ptr %19, align 8, !tbaa !58
  br label %20

20:                                               ; preds = %14, %8
  store i32 0, ptr %4, align 4
  br label %21

21:                                               ; preds = %20, %7
  call void @llvm.lifetime.end.p0(i64 8, ptr %3) #10
  %22 = load i32, ptr %4, align 4
  switch i32 %22, label %24 [
    i32 0, label %23
    i32 1, label %23
  ]

23:                                               ; preds = %21, %21
  ret void

24:                                               ; preds = %21
  unreachable
}