; Function Attrs: nounwind uwtable
define void @IDAQuadFree(ptr noundef captures(address_is_null) %0) local_unnamed_addr #0 {
  %2 = icmp eq ptr %0, null
  br i1 %2, label %49, label %3

3:                                                ; preds = %1
  %4 = getelementptr inbounds nuw i8, ptr %0, i64 1704
  %5 = load i32, ptr %4, align 8, !tbaa !162
  %.not = icmp eq i32 %5, 0
  br i1 %.not, label %49, label %6

6:                                                ; preds = %3
  %7 = getelementptr inbounds nuw i8, ptr %0, i64 816
  %8 = load ptr, ptr %7, align 8, !tbaa !156
  tail call void @N_VDestroy(ptr noundef %8) #14
  store ptr null, ptr %7, align 8, !tbaa !156
  %9 = getelementptr inbounds nuw i8, ptr %0, i64 824
  %10 = load ptr, ptr %9, align 8, !tbaa !157
  tail call void @N_VDestroy(ptr noundef %10) #14
  store ptr null, ptr %9, align 8, !tbaa !157
  %11 = getelementptr inbounds nuw i8, ptr %0, i64 832
  %12 = load ptr, ptr %11, align 8, !tbaa !158
  tail call void @N_VDestroy(ptr noundef %12) #14
  store ptr null, ptr %11, align 8, !tbaa !158
  %13 = getelementptr inbounds nuw i8, ptr %0, i64 840
  %14 = load ptr, ptr %13, align 8, !tbaa !159
  tail call void @N_VDestroy(ptr noundef %14) #14
  store ptr null, ptr %13, align 8, !tbaa !159
  %15 = getelementptr inbounds nuw i8, ptr %0, i64 1376
  %16 = load i32, ptr %15, align 8, !tbaa !20
  %.not30.i = icmp slt i32 %16, 0
  br i1 %.not30.i, label %._crit_edge.i, label %.lr.ph.i

.lr.ph.i:                                         ; preds = %6
  %17 = getelementptr inbounds nuw i8, ptr %0, i64 768
  br label %18

18:                                               ; preds = %18, %.lr.ph.i
  %indvars.iv.i = phi i64 [ 0, %.lr.ph.i ], [ %indvars.iv.next.i, %18 ]
  %19 = getelementptr inbounds nuw [6 x ptr], ptr %17, i64 0, i64 %indvars.iv.i
  %20 = load ptr, ptr %19, align 8, !tbaa !83
  tail call void @N_VDestroy(ptr noundef %20) #14
  store ptr null, ptr %19, align 8, !tbaa !83
  %indvars.iv.next.i = add nuw nsw i64 %indvars.iv.i, 1
  %21 = load i32, ptr %15, align 8, !tbaa !20
  %22 = sext i32 %21 to i64
  %.not.not.i = icmp slt i64 %indvars.iv.i, %22
  br i1 %.not.not.i, label %18, label %._crit_edge.i

._crit_edge.i:                                    ; preds = %18, %6
  %.lcssa.i = phi i32 [ %16, %6 ], [ %21, %18 ]
  %23 = add nsw i32 %.lcssa.i, 5
  %24 = sext i32 %23 to i64
  %25 = getelementptr inbounds nuw i8, ptr %0, i64 1640
  %26 = load i64, ptr %25, align 8, !tbaa !154
  %27 = mul nsw i64 %26, %24
  %28 = getelementptr inbounds nuw i8, ptr %0, i64 1656
  %29 = load i64, ptr %28, align 8, !tbaa !64
  %30 = sub nsw i64 %29, %27
  store i64 %30, ptr %28, align 8, !tbaa !64
  %31 = getelementptr inbounds nuw i8, ptr %0, i64 1648
  %32 = load i64, ptr %31, align 8, !tbaa !155
  %33 = mul nsw i64 %32, %24
  %34 = getelementptr inbounds nuw i8, ptr %0, i64 1664
  %35 = load i64, ptr %34, align 8, !tbaa !65
  %36 = sub nsw i64 %35, %33
  store i64 %36, ptr %34, align 8, !tbaa !65
  %37 = getelementptr inbounds nuw i8, ptr %0, i64 1700
  %38 = load i32, ptr %37, align 4, !tbaa !165
  %.not29.i = icmp eq i32 %38, 0
  br i1 %.not29.i, label %IDAQuadFreeVectors.exit, label %39

39:                                               ; preds = %._crit_edge.i
  %40 = getelementptr inbounds nuw i8, ptr %0, i64 144
  %41 = load ptr, ptr %40, align 8, !tbaa !166
  tail call void @N_VDestroy(ptr noundef %41) #14
  store ptr null, ptr %40, align 8, !tbaa !166
  %42 = load i64, ptr %25, align 8, !tbaa !154
  %43 = load i64, ptr %28, align 8, !tbaa !64
  %44 = sub nsw i64 %43, %42
  store i64 %44, ptr %28, align 8, !tbaa !64
  %45 = load i64, ptr %31, align 8, !tbaa !155
  %46 = load i64, ptr %34, align 8, !tbaa !65
  %47 = sub nsw i64 %46, %45
  store i64 %47, ptr %34, align 8, !tbaa !65
  br label %IDAQuadFreeVectors.exit

IDAQuadFreeVectors.exit:                          ; preds = %._crit_edge.i, %39
  store i32 0, ptr %37, align 4, !tbaa !165
  store i32 0, ptr %4, align 8, !tbaa !162
  %48 = getelementptr inbounds nuw i8, ptr %0, i64 96
  store i32 0, ptr %48, align 8, !tbaa !40
  br label %49

49:                                               ; preds = %3, %IDAQuadFreeVectors.exit, %1
  ret void
}